target datalayout = "e-m:e-p270:32:32-p271:32:32-p272:64:64-i64:64-i128:128-f80:128-n8:16:32:64-S128"
target triple = "x86_64-pc-linux-gnu"

%struct._lv_chart_t = type { %struct._lv_obj_t, %struct.lv_ll_t, %struct.lv_ll_t, [2 x i32], [2 x i32], [2 x i32], [2 x i32], i32, i32, i32, i32, i8 }
%struct._lv_obj_t = type { ptr, ptr, ptr, ptr, ptr, %struct.lv_area_t, i32, i16, i16 }
%struct.lv_area_t = type { i32, i32, i32, i32 }
%struct.lv_ll_t = type { i32, ptr, ptr }
%struct._lv_chart_series_t = type { ptr, ptr, %struct.lv_color_t, i32, i8 }
%struct.lv_color_t = type { i8, i8, i8 }

; Function Attrs: nounwind uwtable
define internal void @new_points_alloc(ptr noundef %0, ptr noundef %1, i32 noundef %2, ptr noundef %3) #0 {
  %5 = alloca ptr, align 8
  %6 = alloca ptr, align 8
  %7 = alloca i32, align 4
  %8 = alloca ptr, align 8
  %9 = alloca ptr, align 8
  %10 = alloca i32, align 4
  %11 = alloca i32, align 4
  %12 = alloca ptr, align 8
  %13 = alloca i32, align 4
  store ptr %0, ptr %5, align 8, !tbaa !3
  store ptr %1, ptr %6, align 8, !tbaa !3
  store i32 %2, ptr %7, align 4, !tbaa !7
  store ptr %3, ptr %8, align 8, !tbaa !3
  %14 = load ptr, ptr %8, align 8, !tbaa !3
  %15 = load ptr, ptr %14, align 8, !tbaa !3
  %16 = icmp eq ptr %15, null
  br i1 %16, label %17, label %18

17:                                               ; preds = %4
  br label %175

18:                                               ; preds = %4
  call void @llvm.lifetime.start.p0(i64 8, ptr %9) #5
  %19 = load ptr, ptr %5, align 8, !tbaa !3
  store ptr %19, ptr %9, align 8, !tbaa !3
  call void @llvm.lifetime.start.p0(i64 4, ptr %10) #5
  %20 = load ptr, ptr %9, align 8, !tbaa !3
  %21 = getelementptr inbounds nuw %struct._lv_chart_t, ptr %20, i32 0, i32 10
  %22 = load i32, ptr %21, align 4, !tbaa !16
  store i32 %22, ptr %10, align 4, !tbaa !7
  call void @llvm.lifetime.start.p0(i64 4, ptr %11) #5
  %23 = load ptr, ptr %6, align 8, !tbaa !3
  %24 = getelementptr inbounds nuw %struct._lv_chart_series_t, ptr %23, i32 0, i32 3
  %25 = load i32, ptr %24, align 4, !tbaa !32
  %26 = icmp ne i32 %25, 0
  br i1 %26, label %27, label %125

27:                                               ; preds = %18
  call void @llvm.lifetime.start.p0(i64 8, ptr %12) #5
  %28 = load i32, ptr %7, align 4, !tbaa !7
  %29 = zext i32 %28 to i64
  %30 = mul i64 4, %29
  %31 = call ptr @lv_malloc(i64 noundef %30)
  store ptr %31, ptr %12, align 8, !tbaa !3
  br label %32

32:                                               ; preds = %27
  %33 = load ptr, ptr %12, align 8, !tbaa !3
  %34 = icmp ne ptr %33, null
  br i1 %34, label %41, label %35

35:                                               ; preds = %32
  br label %36

36:                                               ; preds = %35
  br label %37

37:                                               ; preds = %36
  br label %38

38:                                               ; preds = %37
  br label %39

39:                                               ; preds = %40, %38
  br label %40

40:                                               ; preds = %39
  br label %39

41:                                               ; preds = %32
  br label %42

42:                                               ; preds = %41
  br label %43

43:                                               ; preds = %42
  %44 = load ptr, ptr %12, align 8, !tbaa !3
  %45 = icmp eq ptr %44, null
  br i1 %45, label %46, label %47

46:                                               ; preds = %43
  store i32 1, ptr %13, align 4
  br label %122

47:                                               ; preds = %43
  %48 = load i32, ptr %7, align 4, !tbaa !7
  %49 = load i32, ptr %10, align 4, !tbaa !7
  %50 = icmp uge i32 %48, %49
  br i1 %50, label %51, label %91

51:                                               ; preds = %47
  store i32 0, ptr %11, align 4, !tbaa !7
  br label %52

52:                                               ; preds = %73, %51
  %53 = load i32, ptr %11, align 4, !tbaa !7
  %54 = load i32, ptr %10, align 4, !tbaa !7
  %55 = icmp ult i32 %53, %54
  br i1 %55, label %56, label %76

56:                                               ; preds = %52
  %57 = load ptr, ptr %8, align 8, !tbaa !3
  %58 = load ptr, ptr %57, align 8, !tbaa !3
  %59 = load i32, ptr %11, align 4, !tbaa !7
  %60 = load ptr, ptr %6, align 8, !tbaa !3
  %61 = getelementptr inbounds nuw %struct._lv_chart_series_t, ptr %60, i32 0, i32 3
  %62 = load i32, ptr %61, align 4, !tbaa !32
  %63 = add i32 %59, %62
  %64 = load i32, ptr %10, align 4, !tbaa !7
  %65 = urem i32 %63, %64
  %66 = zext i32 %65 to i64
  %67 = getelementptr inbounds nuw i32, ptr %58, i64 %66
  %68 = load i32, ptr %67, align 4, !tbaa !7
  %69 = load ptr, ptr %12, align 8, !tbaa !3
  %70 = load i32, ptr %11, align 4, !tbaa !7
  %71 = zext i32 %70 to i64
  %72 = getelementptr inbounds nuw i32, ptr %69, i64 %71
  store i32 %68, ptr %72, align 4, !tbaa !7
  br label %73

73:                                               ; preds = %56
  %74 = load i32, ptr %11, align 4, !tbaa !7
  %75 = add i32 %74, 1
  store i32 %75, ptr %11, align 4, !tbaa !7
  br label %52, !llvm.loop !34

76:                                               ; preds = %52
  %77 = load i32, ptr %10, align 4, !tbaa !7
  store i32 %77, ptr %11, align 4, !tbaa !7
  br label %78

78:                                               ; preds = %87, %76
  %79 = load i32, ptr %11, align 4, !tbaa !7
  %80 = load i32, ptr %7, align 4, !tbaa !7
  %81 = icmp ult i32 %79, %80
  br i1 %81, label %82, label %90

82:                                               ; preds = %78
  %83 = load ptr, ptr %12, align 8, !tbaa !3
  %84 = load i32, ptr %11, align 4, !tbaa !7
  %85 = zext i32 %84 to i64
  %86 = getelementptr inbounds nuw i32, ptr %83, i64 %85
  store i32 2147483647, ptr %86, align 4, !tbaa !7
  br label %87

87:                                               ; preds = %82
  %88 = load i32, ptr %11, align 4, !tbaa !7
  %89 = add i32 %88, 1
  store i32 %89, ptr %11, align 4, !tbaa !7
  br label %78, !llvm.loop !35

90:                                               ; preds = %78
  br label %117

91:                                               ; preds = %47
  store i32 0, ptr %11, align 4, !tbaa !7
  br label %92

92:                                               ; preds = %113, %91
  %93 = load i32, ptr %11, align 4, !tbaa !7
  %94 = load i32, ptr %7, align 4, !tbaa !7
  %95 = icmp ult i32 %93, %94
  br i1 %95, label %96, label %116

96:                                               ; preds = %92
  %97 = load ptr, ptr %8, align 8, !tbaa !3
  %98 = load ptr, ptr %97, align 8, !tbaa !3
  %99 = load i32, ptr %11, align 4, !tbaa !7
  %100 = load ptr, ptr %6, align 8, !tbaa !3
  %101 = getelementptr inbounds nuw %struct._lv_chart_series_t, ptr %100, i32 0, i32 3
  %102 = load i32, ptr %101, align 4, !tbaa !32
  %103 = add i32 %99, %102
  %104 = load i32, ptr %10, align 4, !tbaa !7
  %105 = urem i32 %103, %104
  %106 = zext i32 %105 to i64
  %107 = getelementptr inbounds nuw i32, ptr %98, i64 %106
  %108 = load i32, ptr %107, align 4, !tbaa !7
  %109 = load ptr, ptr %12, align 8, !tbaa !3
  %110 = load i32, ptr %11, align 4, !tbaa !7
  %111 = zext i32 %110 to i64
  %112 = getelementptr inbounds nuw i32, ptr %109, i64 %111
  store i32 %108, ptr %112, align 4, !tbaa !7
  br label %113

113:                                              ; preds = %96
  %114 = load i32, ptr %11, align 4, !tbaa !7
  %115 = add i32 %114, 1
  store i32 %115, ptr %11, align 4, !tbaa !7
  br label %92, !llvm.loop !36

116:                                              ; preds = %92
  br label %117

117:                                              ; preds = %116, %90
  %118 = load ptr, ptr %8, align 8, !tbaa !3
  %119 = load ptr, ptr %118, align 8, !tbaa !3
  call void @lv_free(ptr noundef %119)
  %120 = load ptr, ptr %12, align 8, !tbaa !3
  %121 = load ptr, ptr %8, align 8, !tbaa !3
  store ptr %120, ptr %121, align 8, !tbaa !3
  store i32 0, ptr %13, align 4
  br label %122

122:                                              ; preds = %117, %46
  call void @llvm.lifetime.end.p0(i64 8, ptr %12) #5
  %123 = load i32, ptr %13, align 4
  switch i32 %123, label %173 [
    i32 0, label %124
  ]

124:                                              ; preds = %122
  br label %172

125:                                              ; preds = %18
  %126 = load ptr, ptr %8, align 8, !tbaa !3
  %127 = load ptr, ptr %126, align 8, !tbaa !3
  %128 = load i32, ptr %7, align 4, !tbaa !7
  %129 = zext i32 %128 to i64
  %130 = mul i64 4, %129
  %131 = call ptr @lv_realloc(ptr noundef %127, i64 noundef %130)
  %132 = load ptr, ptr %8, align 8, !tbaa !3
  store ptr %131, ptr %132, align 8, !tbaa !3
  br label %133

133:                                              ; preds = %125
  %134 = load ptr, ptr %8, align 8, !tbaa !3
  %135 = load ptr, ptr %134, align 8, !tbaa !3
  %136 = icmp ne ptr %135, null
  br i1 %136, label %143, label %137

137:                                              ; preds = %133
  br label %138

138:                                              ; preds = %137
  br label %139

139:                                              ; preds = %138
  br label %140

140:                                              ; preds = %139
  br label %141

141:                                              ; preds = %142, %140
  br label %142

142:                                              ; preds = %141
  br label %141

143:                                              ; preds = %133
  br label %144

144:                                              ; preds = %143
  br label %145

145:                                              ; preds = %144
  %146 = load ptr, ptr %8, align 8, !tbaa !3
  %147 = load ptr, ptr %146, align 8, !tbaa !3
  %148 = icmp eq ptr %147, null
  br i1 %148, label %149, label %150

149:                                              ; preds = %145
  store i32 1, ptr %13, align 4
  br label %173

150:                                              ; preds = %145
  %151 = load i32, ptr %7, align 4, !tbaa !7
  %152 = load i32, ptr %10, align 4, !tbaa !7
  %153 = icmp ugt i32 %151, %152
  br i1 %153, label %154, label %171

154:                                              ; preds = %150
  %155 = load i32, ptr %10, align 4, !tbaa !7
  %156 = sub i32 %155, 1
  store i32 %156, ptr %11, align 4, !tbaa !7
  br label %157

157:                                              ; preds = %167, %154
  %158 = load i32, ptr %11, align 4, !tbaa !7
  %159 = load i32, ptr %7, align 4, !tbaa !7
  %160 = icmp ult i32 %158, %159
  br i1 %160, label %161, label %170

161:                                              ; preds = %157
  %162 = load ptr, ptr %8, align 8, !tbaa !3
  %163 = load ptr, ptr %162, align 8, !tbaa !3
  %164 = load i32, ptr %11, align 4, !tbaa !7
  %165 = zext i32 %164 to i64
  %166 = getelementptr inbounds nuw i32, ptr %163, i64 %165
  store i32 2147483647, ptr %166, align 4, !tbaa !7
  br label %167

167:                                              ; preds = %161
  %168 = load i32, ptr %11, align 4, !tbaa !7
  %169 = add i32 %168, 1
  store i32 %169, ptr %11, align 4, !tbaa !7
  br label %157, !llvm.loop !37

170:                                              ; preds = %157
  br label %171

171:                                              ; preds = %170, %150
  br label %172

172:                                              ; preds = %171, %124
  store i32 0, ptr %13, align 4
  br label %173

173:                                              ; preds = %172, %149, %122
  call void @llvm.lifetime.end.p0(i64 4, ptr %11) #5
  call void @llvm.lifetime.end.p0(i64 4, ptr %10) #5
  call void @llvm.lifetime.end.p0(i64 8, ptr %9) #5
  %174 = load i32, ptr %13, align 4
  switch i32 %174, label %176 [
    i32 0, label %175
    i32 1, label %175
  ]

175:                                              ; preds = %17, %173, %173
  ret void

176:                                              ; preds = %173
  unreachable
}