; Function Attrs: nounwind uwtable
define internal fastcc void @new_points_alloc(ptr nocapture noundef readonly %0, ptr nocapture noundef nonnull readonly %1, i32 noundef %2, ptr nocapture noundef nonnull %3) unnamed_addr #0 {
  %5 = load ptr, ptr %3, align 8, !tbaa !68
  %6 = icmp eq ptr %5, null
  br i1 %6, label %.loopexit, label %7

7:                                                ; preds = %4
  %8 = getelementptr inbounds nuw i8, ptr %0, i64 156
  %9 = load i32, ptr %8, align 4, !tbaa !15
  %10 = getelementptr inbounds nuw i8, ptr %1, i64 20
  %11 = load i32, ptr %10, align 4, !tbaa !66
  %.not = icmp eq i32 %11, 0
  %12 = zext i32 %2 to i64
  %13 = shl nuw nsw i64 %12, 2
  br i1 %.not, label %41, label %14

14:                                               ; preds = %7
  %15 = tail call ptr @lv_malloc(i64 noundef %13) #8
  %.not58 = icmp eq ptr %15, null
  br i1 %.not58, label %.preheader60, label %16

.preheader60:                                     ; preds = %14, %.preheader60
  br label %.preheader60

16:                                               ; preds = %14
  %.not59 = icmp ult i32 %2, %9
  br i1 %.not59, label %.preheader61, label %.preheader65

.preheader65:                                     ; preds = %16
  %.not74 = icmp eq i32 %9, 0
  br i1 %.not74, label %.preheader63, label %.lr.ph

.lr.ph:                                           ; preds = %.preheader65
  %17 = load ptr, ptr %3, align 8, !tbaa !68
  %wide.trip.count = zext i32 %9 to i64
  br label %21

.preheader61:                                     ; preds = %16
  %.not75 = icmp eq i32 %2, 0
  br i1 %.not75, label %.loopexit62, label %.lr.ph70

.lr.ph70:                                         ; preds = %.preheader61
  %18 = load ptr, ptr %3, align 8, !tbaa !68
  br label %31

.preheader63:                                     ; preds = %21, %.preheader65
  %19 = icmp ult i32 %9, %2
  br i1 %19, label %.lr.ph68.preheader, label %.loopexit62

.lr.ph68.preheader:                               ; preds = %.preheader63
  %20 = zext i32 %9 to i64
  br label %.lr.ph68

21:                                               ; preds = %.lr.ph, %21
  %indvars.iv = phi i64 [ 0, %.lr.ph ], [ %indvars.iv.next, %21 ]
  %22 = load i32, ptr %10, align 4, !tbaa !66
  %23 = trunc nuw i64 %indvars.iv to i32
  %24 = add i32 %22, %23
  %25 = urem i32 %24, %9
  %26 = zext i32 %25 to i64
  %27 = getelementptr inbounds nuw i32, ptr %17, i64 %26
  %28 = load i32, ptr %27, align 4, !tbaa !3
  %29 = getelementptr inbounds nuw i32, ptr %15, i64 %indvars.iv
  store i32 %28, ptr %29, align 4, !tbaa !3
  %indvars.iv.next = add nuw nsw i64 %indvars.iv, 1
  %exitcond.not = icmp eq i64 %indvars.iv.next, %wide.trip.count
  br i1 %exitcond.not, label %.preheader63, label %21, !llvm.loop !69

.lr.ph68:                                         ; preds = %.lr.ph68.preheader, %.lr.ph68
  %indvars.iv78 = phi i64 [ %20, %.lr.ph68.preheader ], [ %indvars.iv.next79, %.lr.ph68 ]
  %30 = getelementptr inbounds nuw i32, ptr %15, i64 %indvars.iv78
  store i32 2147483647, ptr %30, align 4, !tbaa !3
  %indvars.iv.next79 = add nuw nsw i64 %indvars.iv78, 1
  %exitcond82.not = icmp eq i64 %indvars.iv.next79, %12
  br i1 %exitcond82.not, label %.loopexit62, label %.lr.ph68, !llvm.loop !70

31:                                               ; preds = %.lr.ph70, %31
  %indvars.iv83 = phi i64 [ 0, %.lr.ph70 ], [ %indvars.iv.next84, %31 ]
  %32 = load i32, ptr %10, align 4, !tbaa !66
  %33 = trunc nuw i64 %indvars.iv83 to i32
  %34 = add i32 %32, %33
  %35 = urem i32 %34, %9
  %36 = zext i32 %35 to i64
  %37 = getelementptr inbounds nuw i32, ptr %18, i64 %36
  %38 = load i32, ptr %37, align 4, !tbaa !3
  %39 = getelementptr inbounds nuw i32, ptr %15, i64 %indvars.iv83
  store i32 %38, ptr %39, align 4, !tbaa !3
  %indvars.iv.next84 = add nuw nsw i64 %indvars.iv83, 1
  %exitcond87.not = icmp eq i64 %indvars.iv.next84, %12
  br i1 %exitcond87.not, label %.loopexit62, label %31, !llvm.loop !71

.loopexit62:                                      ; preds = %.lr.ph68, %31, %.preheader63, %.preheader61
  %40 = load ptr, ptr %3, align 8, !tbaa !68
  tail call void @lv_free(ptr noundef %40) #8
  store ptr %15, ptr %3, align 8, !tbaa !68
  br label %.loopexit

41:                                               ; preds = %7
  %42 = tail call ptr @lv_realloc(ptr noundef nonnull %5, i64 noundef %13) #8
  store ptr %42, ptr %3, align 8, !tbaa !68
  %.not57 = icmp eq ptr %42, null
  br i1 %.not57, label %.preheader, label %43

.preheader:                                       ; preds = %41, %.preheader
  br label %.preheader

43:                                               ; preds = %41
  %44 = icmp ugt i32 %2, %9
  %45 = add i32 %9, -1
  %46 = icmp ult i32 %45, %2
  %or.cond = and i1 %44, %46
  br i1 %or.cond, label %.lr.ph72.preheader, label %.loopexit

.lr.ph72.preheader:                               ; preds = %43
  %47 = zext i32 %45 to i64
  br label %.lr.ph72

.lr.ph72:                                         ; preds = %.lr.ph72.preheader, %.lr.ph72
  %indvars.iv88 = phi i64 [ %47, %.lr.ph72.preheader ], [ %indvars.iv.next89, %.lr.ph72 ]
  %48 = getelementptr inbounds nuw i32, ptr %42, i64 %indvars.iv88
  store i32 2147483647, ptr %48, align 4, !tbaa !3
  %indvars.iv.next89 = add nuw nsw i64 %indvars.iv88, 1
  %lftr.wideiv = trunc i64 %indvars.iv.next89 to i32
  %exitcond91.not = icmp eq i32 %2, %lftr.wideiv
  br i1 %exitcond91.not, label %.loopexit, label %.lr.ph72, !llvm.loop !72

.loopexit:                                        ; preds = %.lr.ph72, %.loopexit62, %43, %4
  ret void
}